target datalayout = "e-m:e-p270:32:32-p271:32:32-p272:64:64-i64:64-i128:128-f80:128-n8:16:32:64-S128"
target triple = "x86_64-pc-linux-gnu"

%struct.lg4ff_device = type { i16, i16, [16 x %struct.lg4ff_effect_state], [4 x %struct.lg4ff_slot], i32, i32, i32, i32, i32, i32, i32, ptr, i8, ptr, [256 x i8], ptr, i8 }
%struct.lg4ff_effect_state = type { %union.SDL_HapticEffect, i64, i64, i64, i32, i64, i64, i32, i32, i32, double, i32, i8 }
%union.SDL_HapticEffect = type { %struct.SDL_HapticCustom, [16 x i8] }
%struct.SDL_HapticCustom = type { i16, %struct.SDL_HapticDirection, i32, i16, i16, i16, i8, i16, i16, ptr, i16, i16, i16, i16 }
%struct.SDL_HapticDirection = type { i8, [3 x i32] }
%struct.lg4ff_slot = type { i32, %struct.lg4ff_effect_parameters, [7 x i8], i32, i8, i32 }
%struct.lg4ff_effect_parameters = type { i32, i32, i32, i32, i32, i32 }
%struct.SDL_HIDAPI_HapticDevice = type { ptr, ptr, ptr, ptr }

; Function Attrs: nounwind uwtable
define internal zeroext i1 @SDL_HIDAPI_HapticDriverLg4ff_StopEffects(ptr noundef %0) #0 {
  %2 = alloca ptr, align 8
  %3 = alloca ptr, align 8
  %4 = alloca i32, align 4
  %5 = alloca ptr, align 8
  store ptr %0, ptr %2, align 8
  call void @llvm.lifetime.start.p0(i64 8, ptr %3) #6
  %6 = load ptr, ptr %2, align 8
  %7 = getelementptr inbounds nuw %struct.SDL_HIDAPI_HapticDevice, ptr %6, i32 0, i32 3
  %8 = load ptr, ptr %7, align 8
  store ptr %8, ptr %3, align 8
  call void @llvm.lifetime.start.p0(i64 4, ptr %4) #6
  %9 = load ptr, ptr %3, align 8
  %10 = getelementptr inbounds nuw %struct.lg4ff_device, ptr %9, i32 0, i32 15
  %11 = load ptr, ptr %10, align 8
  call void @SDL_LockMutex_REAL(ptr noundef %11)
  store i32 0, ptr %4, align 4
  br label %12

12:                                               ; preds = %23, %1
  %13 = load i32, ptr %4, align 4
  %14 = icmp slt i32 %13, 16
  br i1 %14, label %15, label %26

15:                                               ; preds = %12
  call void @llvm.lifetime.start.p0(i64 8, ptr %5) #6
  %16 = load ptr, ptr %3, align 8
  %17 = getelementptr inbounds nuw %struct.lg4ff_device, ptr %16, i32 0, i32 2
  %18 = load i32, ptr %4, align 4
  %19 = sext i32 %18 to i64
  %20 = getelementptr inbounds [16 x %struct.lg4ff_effect_state], ptr %17, i64 0, i64 %19
  store ptr %20, ptr %5, align 8
  %21 = load ptr, ptr %5, align 8
  %22 = getelementptr inbounds nuw %struct.lg4ff_effect_state, ptr %21, i32 0, i32 4
  store i32 0, ptr %22, align 8
  call void @llvm.lifetime.end.p0(i64 8, ptr %5) #6
  br label %23

23:                                               ; preds = %15
  %24 = load i32, ptr %4, align 4
  %25 = add nsw i32 %24, 1
  store i32 %25, ptr %4, align 4
  br label %12, !llvm.loop !8

26:                                               ; preds = %12
  %27 = load ptr, ptr %3, align 8
  %28 = getelementptr inbounds nuw %struct.lg4ff_device, ptr %27, i32 0, i32 15
  %29 = load ptr, ptr %28, align 8
  call void @SDL_UnlockMutex_REAL(ptr noundef %29)
  call void @llvm.lifetime.end.p0(i64 4, ptr %4) #6
  call void @llvm.lifetime.end.p0(i64 8, ptr %3) #6
  ret i1 true
}

; Function Attrs: nounwind uwtable
define internal void @SDL_HIDAPI_HapticDriverLg4ff_Close(ptr noundef %0) #0 {
  %2 = alloca ptr, align 8
  %3 = alloca ptr, align 8
  store ptr %0, ptr %2, align 8
  call void @llvm.lifetime.start.p0(i64 8, ptr %3) #6
  %4 = load ptr, ptr %2, align 8
  %5 = getelementptr inbounds nuw %struct.SDL_HIDAPI_HapticDevice, ptr %4, i32 0, i32 3
  %6 = load ptr, ptr %5, align 8
  store ptr %6, ptr %3, align 8
  %7 = load ptr, ptr %2, align 8
  %8 = call zeroext i1 @SDL_HIDAPI_HapticDriverLg4ff_StopEffects(ptr noundef %7)
  call void @SDL_Delay_REAL(i32 noundef 50)
  %9 = load ptr, ptr %3, align 8
  %10 = getelementptr inbounds nuw %struct.lg4ff_device, ptr %9, i32 0, i32 12
  store i8 1, ptr %10, align 8
  %11 = load ptr, ptr %3, align 8
  %12 = getelementptr inbounds nuw %struct.lg4ff_device, ptr %11, i32 0, i32 13
  %13 = load ptr, ptr %12, align 8
  call void @SDL_WaitThread_REAL(ptr noundef %13, ptr noundef null)
  %14 = load ptr, ptr %3, align 8
  %15 = getelementptr inbounds nuw %struct.lg4ff_device, ptr %14, i32 0, i32 15
  %16 = load ptr, ptr %15, align 8
  call void @SDL_DestroyMutex_REAL(ptr noundef %16)
  call void @llvm.lifetime.end.p0(i64 8, ptr %3) #6
  ret void
}