; Function Attrs: nounwind uwtable
define internal void @SDL_HIDAPI_HapticDriverLg4ff_Close(ptr noundef readonly captures(none) %0) #0 {
  %2 = getelementptr inbounds nuw i8, ptr %0, i64 24
  %3 = load ptr, ptr %2, align 8
  %4 = getelementptr inbounds nuw i8, ptr %3, i64 2944
  %5 = load ptr, ptr %4, align 8
  tail call void @SDL_LockMutex_REAL(ptr noundef %5) #8
  %invariant.gep.i = getelementptr inbounds nuw i8, ptr %3, i64 104
  br label %6

6:                                                ; preds = %6, %1
  %indvars.iv.i = phi i64 [ 0, %1 ], [ %indvars.iv.next.i, %6 ]
  %7 = mul nuw nsw i64 %indvars.iv.i, 152
  %gep.i = getelementptr inbounds nuw i8, ptr %invariant.gep.i, i64 %7
  store i32 0, ptr %gep.i, align 8
  %indvars.iv.next.i = add nuw nsw i64 %indvars.iv.i, 1
  %exitcond.not.i = icmp eq i64 %indvars.iv.next.i, 16
  br i1 %exitcond.not.i, label %SDL_HIDAPI_HapticDriverLg4ff_StopEffects.exit, label %6, !llvm.loop !6

SDL_HIDAPI_HapticDriverLg4ff_StopEffects.exit:    ; preds = %6
  %8 = load ptr, ptr %4, align 8
  tail call void @SDL_UnlockMutex_REAL(ptr noundef %8) #8
  tail call void @SDL_Delay_REAL(i32 noundef 50) #8
  %9 = getelementptr inbounds nuw i8, ptr %3, i64 2672
  store i8 1, ptr %9, align 8
  %10 = getelementptr inbounds nuw i8, ptr %3, i64 2680
  %11 = load ptr, ptr %10, align 8
  tail call void @SDL_WaitThread_REAL(ptr noundef %11, ptr noundef null) #8
  %12 = load ptr, ptr %4, align 8
  tail call void @SDL_DestroyMutex_REAL(ptr noundef %12) #8
  ret void
}